ccopy_reg
_reconstructor
p0
(ctorrentpy.network
Network
p1
c__builtin__
object
p2
Ntp3
Rp4
(dp5
S'waterbodies_file'
p6
S'C:/PycharmProjects/Python/torrentpy/in/CatchmentSemiDistributedName_OutletName/CatchmentSemiDistributedName_OutletName.waterbodies'
p7
sS'links'
p8
(lp9
g0
(ctorrentpy.network
Link
p10
g2
Ntp11
Rp12
(dp13
S'category'
p14
I1
sS'r_models'
p15
(lp16
sS'name'
p17
S'RiverReachH'
p18
sS'extra'
p19
(dp20
sS'all_models'
p21
NsS'descriptors'
p22
(dp23
S'Lg'
p24
F0.0
sS'P_near_surface_delivery'
p25
F0.3220479132913603
sS'Q.mm'
p26
F545.209
sS'FARL'
p27
F1.0
sS'PEAT'
p28
F0.0
sS'VulH'
p29
F0.4380407402451158
sS'arable_ratio'
p30
F0.13454998171973992
sS'N_subsoil_transport'
p31
F0.4744579367867641
sS'DRAIND'
p32
F0.819
sS'stream_length'
p33
F4588.457110413992
sS'Rg'
p34
F0.0
sS'LowP'
p35
F0.5494531515270042
sS'WtdReCoMod'
p36
F0.2578439414450312
sS'STMFRQ'
p37
F9.0
sS'PoorDrain'
p38
F0.5110076425582004
sS'TAYSLO'
p39
F0.163568
sS'VulE'
p40
F0.028372823614484562
sS'Pl'
p41
F0.07029406628487676
sS'Rk'
p42
F0.0
sS'VulM'
p43
F0.5273442135046715
sS'Rkd'
p44
F0.0
sS'SlopeMed'
p45
F0.0025956353006400886
sS'area'
p46
F15853899.999999998
sS'AlluvMIN'
p47
F0.020279824464545012
sS'Peat'
p48
F0.07468644518676151
sS'Pu'
p49
F0.0
sS'SlopeLow'
p50
F0.9974043646993599
sS'Water'
p51
F0.0018884547842235836
sS'FAI'
p52
F0.2647
sS'FOREST'
p53
F0.1567
sS'HighP'
p54
F0.012150851666559043
sS'land_drain_ratio'
p55
F0.533428876292543
sS'urban_ratio'
p56
F0.0
sS'Ll'
p57
F0.9297059337151232
sS'URBEXT'
p58
F0.0
sS'SAAPE'
p59
F522.52
sS'Made'
p60
F0.0028576248394456653
sS'N_bedrock_transport'
p61
F0.8120399500103203
sS'VulX'
p62
F0.0043537056685091354
sS'P_subsoil_transport'
p63
F0.03335346617080598
sS'wb_type'
p64
F1.0
sS'Lk'
p65
F0.0
sS'ARTDRAIN2'
p66
F0.0
sS'VulL'
p67
F0.0
sS'WellDrain'
p68
F0.3892800081668242
sS'N_near_surface_delivery'
p69
F0.3757065868719021
sS'grassland_ratio'
p70
F0.7231579357192742
sS'SlopeHi'
p71
F0.0
sS'Lm'
p72
F0.0
sS'woodland_ratio'
p73
F0.1422920825609851
sS'ModP'
p74
F0.403780950556224
sS'SAAR'
p75
F778.87
sS'AVG.SLOPE'
p76
F0.5226076930665886
sS'BFIsoil'
p77
F0.612435875
sS'S1085'
p78
F0.76733
sS'Rf'
p79
F0.0
sS'FLATWET'
p80
F0.56
sS'Rkc'
p81
F0.0
sS'PNA'
p82
F0.032726529282993695
ssS'connections'
p83
(S'0008'
p84
S'0009'
p85
tp86
sS'c_models'
p87
(lp88
sS'models_parameters'
p89
(dp90
sS'l_models'
p91
(lp92
sbag0
(g10
g2
Ntp93
Rp94
(dp95
g14
I1
sg15
(lp96
sg17
S'RiverReachB'
p97
sg19
(dp98
sg21
Nsg22
(dp99
g24
F0.0
sg25
F0.36676634009285075
sg26
F537.7189999999999
sg27
F1.0
sg28
F0.0
sg29
F0.22693035567702322
sg30
F0.25235303967880757
sg31
F0.2854823537490612
sg32
F0.696
sg33
F9409.19342248841
sg34
F0.0
sg35
F0.7675595692847316
sg36
F0.2198214697910131
sg37
F37.0
sg38
F0.7222157436463992
sg39
F0.427929
sg40
F0.03323499597340898
sg41
F0.04749966378165976
sg42
F0.0
sg43
F0.7311267830311416
sg44
F0.0
sg45
F0.015133343853558466
sg46
F25344925.0
sg47
F0.019308387115708595
sg48
F0.0
sg49
F0.0
sg50
F0.9848666561464415
sg51
F0.0
sg52
F0.2664
sg53
F0.0353
sg54
F0.04372378975875045
sg55
F0.7012336027628725
sg56
F0.14483212061219067
sg57
F0.9525003362183401
sg58
F0.0306
sg59
F525.75
sg60
F0.09403653098431063
sg61
F0.7509608827587064
sg62
F0.008707865318425422
sg63
F0.04456589765713487
sg64
F2.0
sg65
F0.0
sg66
F0.0
sg67
F0.0
sg68
F0.16443933825358156
sg69
F0.318900170455686
sg70
F0.6028148397090028
sg71
F0.0
sg72
F0.0
sg73
F0.0
sg74
F0.146773779664683
sg75
F768.17
sg76
F0.5789596283779224
sg77
F0.472773219
sg78
F1.90725
sg79
F0.0
sg80
F0.56
sg81
F0.0
sg82
F0.041942861291834395
ssg83
(S'0002'
p100
S'0003'
p101
tp102
sg87
(lp103
sg89
(dp104
sg91
(lp105
sbag0
(g10
g2
Ntp106
Rp107
(dp108
g14
I1
sg15
(lp109
sg17
S'RiverReachC'
p110
sg19
(dp111
sg21
Nsg22
(dp112
g24
F0.0
sg25
F0.3775575210458015
sg26
F563.8779999999999
sg27
F1.0
sg28
F0.0
sg29
F0.11348219282044848
sg30
F0.08445734275709108
sg31
F0.17611362964887675
sg32
F0.812
sg33
F4472.04710882564
sg34
F0.0
sg35
F0.8255301250703997
sg36
F0.16669366757632634
sg37
F29.0
sg38
F0.7686866901068706
sg39
F0.322255
sg40
F0.0
sg41
F0.010855594424086465
sg42
F0.0
sg43
F0.40559728952216795
sg44
F0.0
sg45
F0.0036692683230199943
sg46
F12889350.0
sg47
F0.0866166125287432
sg48
F0.0
sg49
F0.0
sg50
F0.99633073167698
sg51
F0.0
sg52
F0.1556
sg53
F0.0109
sg54
F0.10941726711593786
sg55
F0.79342504167519
sg56
F0.08808051315447094
sg57
F0.9891444055759132
sg58
F0.011
sg59
F523.54
sg60
F0.03548531507328221
sg61
F0.6500000000000004
sg62
F0.0
sg63
F0.017527330905119584
sg64
F2.0
sg65
F0.0
sg66
F0.2861
sg67
F0.4809205176573836
sg68
F0.10921138229110465
sg69
F0.3204515626866686
sg70
F0.8216953971889506
sg71
F0.0
sg72
F0.0
sg73
F0.005766746899491068
sg74
F0.06505260781366248
sg75
F805.54
sg76
F0.6109852317498008
sg77
F0.473968144
sg78
F1.81268
sg79
F0.0
sg80
F0.56
sg81
F0.0
sg82
F0.0
ssg83
(S'0002'
p113
S'0004'
p114
tp115
sg87
(lp116
sg89
(dp117
sg91
(lp118
sbag0
(g10
g2
Ntp119
Rp120
(dp121
g14
I1
sg15
(lp122
sg17
S'RiverReachA'
p123
sg19
(dp124
sg21
Nsg22
(dp125
g24
F0.0
sg25
F0.3675114573353889
sg26
F550.382
sg27
F1.0
sg28
F0.0
sg29
F0.08103554146709549
sg30
F0.05316451813225805
sg31
F0.0782670585430715
sg32
F0.804
sg33
F983.0249094514205
sg34
F0.0
sg35
F0.9209278853753567
sg36
F0.1202182506213023
sg37
F87.0
sg38
F0.783621213736996
sg39
F0.40689
sg40
F0.004547522415535531
sg41
F0.01291626344957924
sg42
F0.0
sg43
F0.18754945289396077
sg44
F0.0
sg45
F0.003197461859733049
sg46
F32289275.000000004
sg47
F0.04421610194563036
sg48
F0.0
sg49
F0.0
sg50
F0.996802538140267
sg51
F0.0
sg52
F0.2578
sg53
F0.0215
sg54
F0.0004996154244272233
sg55
F0.8012987759766207
sg56
F0.018715023937185393
sg57
F0.9870837365504207
sg58
F0.019
sg59
F525.64
sg60
F0.010335242327627076
sg61
F0.661421839481855
sg62
F0.0012509318280689084
sg63
F0.018348465439742643
sg64
F2.0
sg65
F0.0
sg66
F0.1091
sg67
F0.7256165513953396
sg68
F0.16182744198974525
sg69
F0.22286335587735498
sg70
F0.9085295882136033
sg71
F0.0
sg72
F0.0
sg73
F0.019590869716953854
sg74
F0.0727740449566118
sg75
F786.26
sg76
F0.6972948627236039
sg77
F0.467161387
sg78
F2.23619
sg79
F0.0
sg80
F0.56
sg81
F0.0
sg82
F0.005798454243604439
ssg83
(S'0001'
p126
S'0002'
p127
tp128
sg87
(lp129
sg89
(dp130
sg91
(lp131
sbag0
(g10
g2
Ntp132
Rp133
(dp134
g14
I1
sg15
(lp135
sg17
S'RiverReachF'
p136
sg19
(dp137
sg21
Nsg22
(dp138
g24
F0.0030524316625053054
sg25
F0.36029002628409085
sg26
F564.508
sg27
F1.0
sg28
F0.0
sg29
F0.19415347907514482
sg30
F0.04813101897769496
sg31
F0.29025861458649604
sg32
F0.814
sg33
F9446.87129151406
sg34
F0.0
sg35
F0.7078789735940335
sg36
F0.18197418293854367
sg37
F17.0
sg38
F0.7068790836779368
sg39
F0.315208
sg40
F0.04403432576649935
sg41
F0.5997988502297623
sg42
F0.0
sg43
F0.2480513068487665
sg44
F0.0
sg45
F0.07993588555353229
sg46
F36667874.99549996
sg47
F0.0583550782373321
sg48
F0.02567713119431252
sg49
F0.0
sg50
F0.9200641144464677
sg51
F0.0
sg52
F0.0928
sg53
F0.0054
sg54
F0.06651036490270884
sg55
F0.7568070143467956
sg56
F0.028815422368372465
sg57
F0.2902140024078411
sg58
F0.0
sg59
F521.24
sg60
F0.010294518527920429
sg61
F0.6544127480217444
sg62
F0.011410009667973748
sg63
F0.03434692667311806
sg64
F1.0
sg65
F0.011826670885496151
sg66
F0.3415
sg67
F0.5023508786416154
sg68
F0.19879418836249815
sg69
F0.35498111067619026
sg70
F0.9070532282685969
sg71
F0.0
sg72
F0.09510804481439457
sg73
F0.01600033038533554
sg74
F0.1701663260687845
sg75
F806.44
sg76
F1.4218069801160342
sg77
F0.528216942
sg78
F2.52697
sg79
F0.0
sg80
F0.57
sg81
F0.0
sg82
F0.055444335434473094
ssg83
(S'0004'
p139
S'0006'
p140
tp141
sg87
(lp142
sg89
(dp143
sg91
(lp144
sbag0
(g10
g2
Ntp145
Rp146
(dp147
g14
I1
sg15
(lp148
sg17
S'RiverReachG'
p149
sg19
(dp150
sg21
Nsg22
(dp151
g24
F0.0
sg25
F0.3852060874322763
sg26
F543.158
sg27
F1.0
sg28
F0.0
sg29
F0.23720314001826415
sg30
F0.14084796354822238
sg31
F0.3115564547395529
sg32
F0.765
sg33
F2090.4234242094217
sg34
F0.0
sg35
F0.7457037490668937
sg36
F0.194313486507538
sg37
F11.0
sg38
F0.8844666163032923
sg39
F0.192669
sg40
F0.09158653362746691
sg41
F0.1017617659411508
sg42
F0.0
sg43
F0.6559746558836719
sg44
F0.0
sg45
F0.009176348701250647
sg46
F5420025.0
sg47
F0.011975192607545343
sg48
F0.0
sg49
F0.0
sg50
F0.9908236512987494
sg51
F0.0
sg52
F0.2562
sg53
F0.1157
sg54
F0.0
sg55
F0.8964415381295896
sg56
F0.0
sg57
F0.8982382340588486
sg58
F0.0
sg59
F523.33
sg60
F0.029588702068467653
sg61
F0.8255285560137536
sg62
F0.015235670470596258
sg63
F0.06292200082487077
sg64
F2.0
sg65
F0.0
sg66
F0.0
sg67
F0.0
sg68
F0.07396948902069399
sg69
F0.33169289645532046
sg70
F0.8591520364517783
sg71
F0.0
sg72
F0.0
sg73
F0.0
sg74
F0.1474740468350422
sg75
F775.94
sg76
F0.49412544712503953
sg77
F0.522461054
sg78
F1.4015
sg79
F0.0
sg80
F0.56
sg81
F0.0
sg82
F0.10682220409806317
ssg83
(S'0005'
p152
S'0008'
p153
tp154
sg87
(lp155
sg89
(dp156
sg91
(lp157
sbag0
(g10
g2
Ntp158
Rp159
(dp160
g14
I1
sg15
(lp161
sg17
S'RiverReachD'
p162
sg19
(dp163
sg21
Nsg22
(dp164
g24
F0.0
sg25
F0.3773711270168253
sg26
F544.159
sg27
F1.0
sg28
F0.0
sg29
F0.16375841301791177
sg30
F0.11407171749191145
sg31
F0.20019394029805296
sg32
F0.746
sg33
F4649.248536082466
sg34
F0.0
sg35
F0.8544910966563732
sg36
F0.17704781878208048
sg37
F27.0
sg38
F0.8382938703284012
sg39
F0.408015
sg40
F0.03508791325101955
sg41
F0.17161147780378547
sg42
F0.0
sg43
F0.7069742220865716
sg44
F0.0
sg45
F0.007936585034145772
sg46
F41147723.50305234
sg47
F0.03696475376537006
sg48
F0.0
sg49
F0.0
sg50
F0.9920634149658543
sg51
F0.0
sg52
F0.3044
sg53
F0.0494
sg54
F0.01039318877210678
sg55
F0.8589221457296647
sg56
F0.012420886076204563
sg57
F0.825181948619712
sg58
F0.0023
sg59
F524.13
sg60
F0.01159747122453079
sg61
F0.6745798821236064
sg62
F0.004476401141832918
sg63
F0.04280394448476318
sg64
F2.0
sg65
F0.0
sg66
F0.0
sg67
F0.08970305050266378
sg68
F0.11314390468169756
sg69
F0.27145334088658063
sg70
F0.8655838157324293
sg71
F0.0
sg72
F0.0032065735765023492
sg73
F0.00792358069945504
sg74
F0.09555140017866698
sg75
F777.37
sg76
F0.6314453113876622
sg77
F0.478001368
sg78
F1.65064
sg79
F0.0
sg80
F0.56
sg81
F0.0
sg82
F0.03956431439285247
ssg83
(S'0003'
p165
S'0005'
p166
tp167
sg87
(lp168
sg89
(dp169
sg91
(lp170
sbag0
(g10
g2
Ntp171
Rp172
(dp173
g14
I1
sg15
(lp174
sg17
S'RiverReachE'
p175
sg19
(dp176
sg21
Nsg22
(dp177
g24
F0.0
sg25
F0.3931867278513361
sg26
F574.798
sg27
F1.0
sg28
F0.0
sg29
F0.08979390607311752
sg30
F0.16738724714349704
sg31
F0.13423324282123572
sg32
F0.98
sg33
F8892.844850017254
sg34
F0.0
sg35
F0.8981719121588699
sg36
F0.11454955096733825
sg37
F5.0
sg38
F0.9197344858173925
sg39
F1.06783
sg40
F0.08569193113715011
sg41
F0.41069455617777795
sg42
F0.0
sg43
F0.13080312732970625
sg44
F0.0
sg45
F0.0472505527423151
sg46
F11207137.500000002
sg47
F0.04619909426998659
sg48
F0.0
sg49
F0.0
sg50
F0.952749447257685
sg51
F0.0
sg52
F0.2599
sg53
F0.0107
sg54
F0.0010248953156853926
sg55
F0.9501579425915796
sg56
F0.0
sg57
F0.5893054438222224
sg58
F0.0
sg59
F526.1
sg60
F0.0
sg61
F0.660660247910311
sg62
F0.015111261388294486
sg63
F0.043577345030133816
sg64
F1.0
sg65
F0.0
sg66
F0.0
sg67
F0.6785997740717321
sg68
F0.034066419912620424
sg69
F0.27643329122803556
sg70
F0.816837055686969
sg71
F0.0
sg72
F0.0
sg73
F0.015775697169534055
sg74
F0.0
sg75
F821.14
sg76
F1.190375278635668
sg77
F0.467335957
sg78
F3.92924
sg79
F0.0
sg80
F0.56
sg81
F0.0
sg82
F0.10080319252544462
ssg83
(S'0004'
p178
S'0007'
p179
tp180
sg87
(lp181
sg89
(dp182
sg91
(lp183
sbag0
(g10
g2
Ntp184
Rp185
(dp186
g14
I1
sg15
(lp187
sg17
S'OutletName'
p188
sg19
(dp189
sg21
Nsg22
(dp190
g24
F0.0
sg25
F0.32169530093123044
sg26
F548.2189999999999
sg27
F1.0
sg28
F0.0
sg29
F0.3125879593493979
sg30
F0.19734716129795676
sg31
F0.4032899462219759
sg32
F0.824
sg33
F7614.138836167727
sg34
F0.0
sg35
F0.6647035611105895
sg36
F0.21724878592472097
sg37
F120.0
sg38
F0.4390604374816321
sg39
F0.349255
sg40
F0.02207528417133672
sg41
F0.09556051772872172
sg42
F0.0
sg43
F0.25769824370106714
sg44
F0.0
sg45
F0.08064812144411526
sg46
F30526200.0
sg47
F0.09962477357770541
sg48
F0.0
sg49
F0.0
sg50
F0.9173330536692798
sg51
F0.0
sg52
F0.2877
sg53
F0.0305
sg54
F0.018730201376421642
sg55
F0.4780671172736842
sg56
F0.21194591250481723
sg57
F0.9044394822712776
sg58
F0.0309
sg59
F526.98
sg60
F0.06602200881612263
sg61
F0.7008336775159331
sg62
F0.008168661343861057
sg63
F0.03413448749531344
sg64
F2.0
sg65
F0.0
sg66
F0.134
sg67
F0.3994698514343364
sg68
F0.39529278012453867
sg69
F0.3564761120846464
sg70
F0.5414031983522204
sg71
F0.002018824886604966
sg72
F0.0
sg73
F0.04930372784500681
sg74
F0.2863222919977905
sg75
F783.17
sg76
F1.4001601282668918
sg77
F0.506113873
sg78
F1.89904
sg79
F0.0
sg80
F0.56
sg81
F0.0
sg82
F0.030243945515197778
ssg83
(S'0000'
p191
S'0001'
p192
tp193
sg87
(lp194
sg89
(dp195
sg91
(lp196
sbasS'descriptors_file'
p197
S'C:/PycharmProjects/Python/torrentpy/in/CatchmentSemiDistributedName_OutletName/CatchmentSemiDistributedName_OutletName.descriptors'
p198
sS'out_fld'
p199
S'C:/PycharmProjects/Python/torrentpy/out/CatchmentSemiDistributedName_OutletName/'
p200
sS'variables'
p201
(lp202
S'q_h2o'
p203
aS'c_no3'
p204
aS'c_nh4'
p205
aS'c_dph'
p206
aS'c_pph'
p207
aS'c_sed'
p208
asS'links_have_models'
p209
I00
sS'links_categories'
p210
(lp211
I1
asS'variable_h'
p212
g203
sS'catchment'
p213
S'CatchmentSemiDistributedName'
p214
sS'links_mapping'
p215
(dp216
g18
g12
sg97
g94
sg110
g107
sg123
g120
sg136
g133
sg149
g146
sg162
g159
sg175
g172
sg188
g185
ssS'outlet'
p217
S'OutletName'
p218
sS'water_quality'
p219
I01
sS'variables_q'
p220
(lp221
g204
ag205
ag206
ag207
ag208
asS'in_fld'
p222
S'C:/PycharmProjects/Python/torrentpy/in/CatchmentSemiDistributedName_OutletName/'
p223
sS'nodes'
p224
(lp225
g0
(ctorrentpy.network
Node
p226
g2
Ntp227
Rp228
(dp229
S'adding'
p230
(lp231
g107
asg19
(dp232
sg17
g114
sS'routing'
p233
(lp234
g133
ag172
asbag0
(g226
g2
Ntp235
Rp236
(dp237
g230
(lp238
g159
asg19
(dp239
sg17
g152
sg233
(lp240
g146
asbag0
(g226
g2
Ntp241
Rp242
(dp243
g230
(lp244
g133
asg19
(dp245
sg17
g140
sg233
(lp246
sbag0
(g226
g2
Ntp247
Rp248
(dp249
g230
(lp250
g172
asg19
(dp251
sg17
g179
sg233
(lp252
sbag0
(g226
g2
Ntp253
Rp254
(dp255
g230
(lp256
sg19
(dp257
sg17
g191
sg233
(lp258
g185
asbag0
(g226
g2
Ntp259
Rp260
(dp261
g230
(lp262
g185
asg19
(dp263
sg17
g126
sg233
(lp264
g120
asbag0
(g226
g2
Ntp265
Rp266
(dp267
g230
(lp268
g120
asg19
(dp269
sg17
g100
sg233
(lp270
g94
ag107
asbag0
(g226
g2
Ntp271
Rp272
(dp273
g230
(lp274
g94
asg19
(dp275
sg17
g101
sg233
(lp276
g159
asbag0
(g226
g2
Ntp277
Rp278
(dp279
g230
(lp280
g146
asg19
(dp281
sg17
g84
sg233
(lp282
g12
asbag0
(g226
g2
Ntp283
Rp284
(dp285
g230
(lp286
g12
asg19
(dp287
sg17
g85
sg233
(lp288
sbasS'network_file'
p289
S'C:/PycharmProjects/Python/torrentpy/in/CatchmentSemiDistributedName_OutletName/CatchmentSemiDistributedName_OutletName.network'
p290
sS'nodes_mapping'
p291
(dp292
g114
g228
sg152
g236
sg140
g242
sg179
g248
sg191
g254
sg126
g260
sg100
g266
sg101
g272
sg84
g278
sg85
g284
ssb.